target datalayout = "e-m:e-p270:32:32-p271:32:32-p272:64:64-i64:64-i128:128-f80:128-n8:16:32:64-S128"
target triple = "x86_64-pc-linux-gnu"

%struct.OSQPSolver = type { ptr, ptr, ptr, ptr }
%struct.OSQPWorkspace_ = type { ptr, ptr, ptr, ptr, ptr, ptr, ptr, ptr, ptr, ptr, ptr, ptr, ptr, ptr, ptr, ptr, ptr, ptr, ptr, ptr, ptr, ptr, ptr, ptr, ptr, ptr, double, double, double, ptr, i64, i64, i64, i64, ptr }
%struct.OSQPData = type { i64, i64, ptr, ptr, ptr, ptr, ptr }
%struct.OSQPSolution = type { ptr, ptr, ptr, ptr }
%struct.OSQPDerivativeData = type { i64, i64, i64, ptr, ptr, ptr, ptr, ptr }
%struct.OSQPCscMatrix = type { i64, i64, ptr, ptr, ptr, i64, i64 }

@__func__.adjoint_derivative_get_mat = private unnamed_addr constant [27 x i8] c"adjoint_derivative_get_mat\00", align 1

; Function Attrs: nounwind uwtable
define i64 @adjoint_derivative_get_mat(ptr noundef %0, ptr noundef %1, ptr noundef %2) #0 {
  %4 = alloca i64, align 8
  %5 = alloca ptr, align 8
  %6 = alloca ptr, align 8
  %7 = alloca ptr, align 8
  %8 = alloca i64, align 8
  %9 = alloca ptr, align 8
  %10 = alloca ptr, align 8
  %11 = alloca ptr, align 8
  %12 = alloca ptr, align 8
  %13 = alloca ptr, align 8
  %14 = alloca ptr, align 8
  %15 = alloca ptr, align 8
  %16 = alloca i64, align 8
  %17 = alloca ptr, align 8
  %18 = alloca ptr, align 8
  %19 = alloca i64, align 8
  %20 = alloca i64, align 8
  %21 = alloca i64, align 8
  store ptr %0, ptr %5, align 8
  store ptr %1, ptr %6, align 8
  store ptr %2, ptr %7, align 8
  %22 = load ptr, ptr %5, align 8
  %23 = icmp ne ptr %22, null
  br i1 %23, label %24, label %36

24:                                               ; preds = %3
  %25 = load ptr, ptr %5, align 8
  %26 = getelementptr inbounds %struct.OSQPSolver, ptr %25, i32 0, i32 3
  %27 = load ptr, ptr %26, align 8
  %28 = icmp ne ptr %27, null
  br i1 %28, label %29, label %36

29:                                               ; preds = %24
  %30 = load ptr, ptr %5, align 8
  %31 = getelementptr inbounds %struct.OSQPSolver, ptr %30, i32 0, i32 3
  %32 = load ptr, ptr %31, align 8
  %33 = getelementptr inbounds %struct.OSQPWorkspace_, ptr %32, i32 0, i32 34
  %34 = load ptr, ptr %33, align 8
  %35 = icmp ne ptr %34, null
  br i1 %35, label %38, label %36

36:                                               ; preds = %29, %24, %3
  %37 = call i64 @_osqp_error(i32 noundef 6, ptr noundef @__func__.adjoint_derivative_get_mat)
  store i64 %37, ptr %4, align 8
  br label %219

38:                                               ; preds = %29
  %39 = load ptr, ptr %5, align 8
  %40 = getelementptr inbounds %struct.OSQPSolver, ptr %39, i32 0, i32 3
  %41 = load ptr, ptr %40, align 8
  %42 = getelementptr inbounds %struct.OSQPWorkspace_, ptr %41, i32 0, i32 0
  %43 = load ptr, ptr %42, align 8
  %44 = getelementptr inbounds %struct.OSQPData, ptr %43, i32 0, i32 0
  %45 = load i64, ptr %44, align 8
  store i64 %45, ptr %8, align 8
  %46 = load ptr, ptr %5, align 8
  %47 = getelementptr inbounds %struct.OSQPSolver, ptr %46, i32 0, i32 3
  %48 = load ptr, ptr %47, align 8
  %49 = getelementptr inbounds %struct.OSQPWorkspace_, ptr %48, i32 0, i32 34
  %50 = load ptr, ptr %49, align 8
  store ptr %50, ptr %9, align 8
  %51 = load ptr, ptr %5, align 8
  %52 = getelementptr inbounds %struct.OSQPSolver, ptr %51, i32 0, i32 1
  %53 = load ptr, ptr %52, align 8
  %54 = getelementptr inbounds %struct.OSQPSolution, ptr %53, i32 0, i32 0
  %55 = load ptr, ptr %54, align 8
  %56 = load i64, ptr %8, align 8
  %57 = call ptr @OSQPVectorf_new(ptr noundef %55, i64 noundef %56)
  store ptr %57, ptr %10, align 8
  %58 = load ptr, ptr %10, align 8
  %59 = call ptr @OSQPVectorf_data(ptr noundef %58)
  store ptr %59, ptr %11, align 8
  %60 = load ptr, ptr %9, align 8
  %61 = getelementptr inbounds %struct.OSQPDerivativeData, ptr %60, i32 0, i32 4
  %62 = load ptr, ptr %61, align 8
  %63 = call ptr @OSQPVectorf_data(ptr noundef %62)
  store ptr %63, ptr %12, align 8
  %64 = load ptr, ptr %9, align 8
  %65 = getelementptr inbounds %struct.OSQPDerivativeData, ptr %64, i32 0, i32 3
  %66 = load ptr, ptr %65, align 8
  %67 = call ptr @OSQPVectorf_data(ptr noundef %66)
  store ptr %67, ptr %13, align 8
  %68 = load ptr, ptr %9, align 8
  %69 = getelementptr inbounds %struct.OSQPDerivativeData, ptr %68, i32 0, i32 6
  %70 = load ptr, ptr %69, align 8
  %71 = call ptr @OSQPVectorf_data(ptr noundef %70)
  store ptr %71, ptr %14, align 8
  %72 = load ptr, ptr %9, align 8
  %73 = getelementptr inbounds %struct.OSQPDerivativeData, ptr %72, i32 0, i32 5
  %74 = load ptr, ptr %73, align 8
  %75 = call ptr @OSQPVectorf_data(ptr noundef %74)
  store ptr %75, ptr %15, align 8
  %76 = load i64, ptr %8, align 8
  %77 = load ptr, ptr %9, align 8
  %78 = getelementptr inbounds %struct.OSQPDerivativeData, ptr %77, i32 0, i32 0
  %79 = load i64, ptr %78, align 8
  %80 = add nsw i64 %76, %79
  %81 = load ptr, ptr %9, align 8
  %82 = getelementptr inbounds %struct.OSQPDerivativeData, ptr %81, i32 0, i32 1
  %83 = load i64, ptr %82, align 8
  %84 = add nsw i64 %80, %83
  %85 = load ptr, ptr %9, align 8
  %86 = getelementptr inbounds %struct.OSQPDerivativeData, ptr %85, i32 0, i32 2
  %87 = load i64, ptr %86, align 8
  %88 = add nsw i64 %84, %87
  store i64 %88, ptr %16, align 8
  %89 = load ptr, ptr %9, align 8
  %90 = getelementptr inbounds %struct.OSQPDerivativeData, ptr %89, i32 0, i32 7
  %91 = load ptr, ptr %90, align 8
  %92 = load i64, ptr %16, align 8
  %93 = load i64, ptr %8, align 8
  %94 = call ptr @OSQPVectorf_view(ptr noundef %91, i64 noundef %92, i64 noundef %93)
  store ptr %94, ptr %17, align 8
  %95 = load ptr, ptr %17, align 8
  %96 = call ptr @OSQPVectorf_data(ptr noundef %95)
  store ptr %96, ptr %18, align 8
  store i64 0, ptr %19, align 8
  br label %97

97:                                               ; preds = %213, %38
  %98 = load i64, ptr %19, align 8
  %99 = load i64, ptr %8, align 8
  %100 = icmp slt i64 %98, %99
  br i1 %100, label %101, label %216

101:                                              ; preds = %97
  %102 = load ptr, ptr %6, align 8
  %103 = getelementptr inbounds %struct.OSQPCscMatrix, ptr %102, i32 0, i32 2
  %104 = load ptr, ptr %103, align 8
  %105 = load i64, ptr %19, align 8
  %106 = getelementptr inbounds i64, ptr %104, i64 %105
  %107 = load i64, ptr %106, align 8
  store i64 %107, ptr %20, align 8
  br label %108

108:                                              ; preds = %149, %101
  %109 = load i64, ptr %20, align 8
  %110 = load ptr, ptr %6, align 8
  %111 = getelementptr inbounds %struct.OSQPCscMatrix, ptr %110, i32 0, i32 2
  %112 = load ptr, ptr %111, align 8
  %113 = load i64, ptr %19, align 8
  %114 = add nsw i64 %113, 1
  %115 = getelementptr inbounds i64, ptr %112, i64 %114
  %116 = load i64, ptr %115, align 8
  %117 = icmp slt i64 %109, %116
  br i1 %117, label %118, label %152

118:                                              ; preds = %108
  %119 = load ptr, ptr %6, align 8
  %120 = getelementptr inbounds %struct.OSQPCscMatrix, ptr %119, i32 0, i32 3
  %121 = load ptr, ptr %120, align 8
  %122 = load i64, ptr %20, align 8
  %123 = getelementptr inbounds i64, ptr %121, i64 %122
  %124 = load i64, ptr %123, align 8
  store i64 %124, ptr %21, align 8
  %125 = load ptr, ptr %18, align 8
  %126 = load i64, ptr %21, align 8
  %127 = getelementptr inbounds double, ptr %125, i64 %126
  %128 = load double, ptr %127, align 8
  %129 = load ptr, ptr %11, align 8
  %130 = load i64, ptr %19, align 8
  %131 = getelementptr inbounds double, ptr %129, i64 %130
  %132 = load double, ptr %131, align 8
  %133 = load ptr, ptr %18, align 8
  %134 = load i64, ptr %19, align 8
  %135 = getelementptr inbounds double, ptr %133, i64 %134
  %136 = load double, ptr %135, align 8
  %137 = load ptr, ptr %11, align 8
  %138 = load i64, ptr %21, align 8
  %139 = getelementptr inbounds double, ptr %137, i64 %138
  %140 = load double, ptr %139, align 8
  %141 = fmul double %136, %140
  %142 = call double @llvm.fmuladd.f64(double %128, double %132, double %141)
  %143 = fmul double 5.000000e-01, %142
  %144 = load ptr, ptr %6, align 8
  %145 = getelementptr inbounds %struct.OSQPCscMatrix, ptr %144, i32 0, i32 4
  %146 = load ptr, ptr %145, align 8
  %147 = load i64, ptr %20, align 8
  %148 = getelementptr inbounds double, ptr %146, i64 %147
  store double %143, ptr %148, align 8
  br label %149

149:                                              ; preds = %118
  %150 = load i64, ptr %20, align 8
  %151 = add nsw i64 %150, 1
  store i64 %151, ptr %20, align 8
  br label %108, !llvm.loop !4

152:                                              ; preds = %108
  %153 = load ptr, ptr %7, align 8
  %154 = getelementptr inbounds %struct.OSQPCscMatrix, ptr %153, i32 0, i32 2
  %155 = load ptr, ptr %154, align 8
  %156 = load i64, ptr %19, align 8
  %157 = getelementptr inbounds i64, ptr %155, i64 %156
  %158 = load i64, ptr %157, align 8
  store i64 %158, ptr %20, align 8
  br label %159

159:                                              ; preds = %209, %152
  %160 = load i64, ptr %20, align 8
  %161 = load ptr, ptr %7, align 8
  %162 = getelementptr inbounds %struct.OSQPCscMatrix, ptr %161, i32 0, i32 2
  %163 = load ptr, ptr %162, align 8
  %164 = load i64, ptr %19, align 8
  %165 = add nsw i64 %164, 1
  %166 = getelementptr inbounds i64, ptr %163, i64 %165
  %167 = load i64, ptr %166, align 8
  %168 = icmp slt i64 %160, %167
  br i1 %168, label %169, label %212

169:                                              ; preds = %159
  %170 = load ptr, ptr %7, align 8
  %171 = getelementptr inbounds %struct.OSQPCscMatrix, ptr %170, i32 0, i32 3
  %172 = load ptr, ptr %171, align 8
  %173 = load i64, ptr %20, align 8
  %174 = getelementptr inbounds i64, ptr %172, i64 %173
  %175 = load i64, ptr %174, align 8
  store i64 %175, ptr %21, align 8
  %176 = load ptr, ptr %12, align 8
  %177 = load i64, ptr %21, align 8
  %178 = getelementptr inbounds double, ptr %176, i64 %177
  %179 = load double, ptr %178, align 8
  %180 = load ptr, ptr %13, align 8
  %181 = load i64, ptr %21, align 8
  %182 = getelementptr inbounds double, ptr %180, i64 %181
  %183 = load double, ptr %182, align 8
  %184 = fsub double %179, %183
  %185 = load ptr, ptr %18, align 8
  %186 = load i64, ptr %19, align 8
  %187 = getelementptr inbounds double, ptr %185, i64 %186
  %188 = load double, ptr %187, align 8
  %189 = load ptr, ptr %14, align 8
  %190 = load i64, ptr %21, align 8
  %191 = getelementptr inbounds double, ptr %189, i64 %190
  %192 = load double, ptr %191, align 8
  %193 = load ptr, ptr %15, align 8
  %194 = load i64, ptr %21, align 8
  %195 = getelementptr inbounds double, ptr %193, i64 %194
  %196 = load double, ptr %195, align 8
  %197 = fsub double %192, %196
  %198 = load ptr, ptr %11, align 8
  %199 = load i64, ptr %19, align 8
  %200 = getelementptr inbounds double, ptr %198, i64 %199
  %201 = load double, ptr %200, align 8
  %202 = fmul double %197, %201
  %203 = call double @llvm.fmuladd.f64(double %184, double %188, double %202)
  %204 = load ptr, ptr %7, align 8
  %205 = getelementptr inbounds %struct.OSQPCscMatrix, ptr %204, i32 0, i32 4
  %206 = load ptr, ptr %205, align 8
  %207 = load i64, ptr %20, align 8
  %208 = getelementptr inbounds double, ptr %206, i64 %207
  store double %203, ptr %208, align 8
  br label %209

209:                                              ; preds = %169
  %210 = load i64, ptr %20, align 8
  %211 = add nsw i64 %210, 1
  store i64 %211, ptr %20, align 8
  br label %159, !llvm.loop !6

212:                                              ; preds = %159
  br label %213

213:                                              ; preds = %212
  %214 = load i64, ptr %19, align 8
  %215 = add nsw i64 %214, 1
  store i64 %215, ptr %19, align 8
  br label %97, !llvm.loop !7

216:                                              ; preds = %97
  %217 = load ptr, ptr %17, align 8
  call void @OSQPVectorf_view_free(ptr noundef %217)
  %218 = load ptr, ptr %10, align 8
  call void @OSQPVectorf_free(ptr noundef %218)
  store i64 0, ptr %4, align 8
  br label %219

219:                                              ; preds = %216, %36
  %220 = load i64, ptr %4, align 8
  ret i64 %220
}