; Function Attrs: nounwind uwtable
define i64 @adjoint_derivative_get_mat(ptr noundef readonly %0, ptr nocapture noundef readonly %1, ptr nocapture noundef readonly %2) local_unnamed_addr #0 {
  %.not = icmp eq ptr %0, null
  br i1 %.not, label %10, label %4

4:                                                ; preds = %3
  %5 = getelementptr inbounds i8, ptr %0, i64 24
  %6 = load ptr, ptr %5, align 8
  %.not70 = icmp eq ptr %6, null
  br i1 %.not70, label %10, label %7

7:                                                ; preds = %4
  %8 = getelementptr inbounds i8, ptr %6, i64 272
  %9 = load ptr, ptr %8, align 8
  %.not71 = icmp eq ptr %9, null
  br i1 %.not71, label %10, label %12

10:                                               ; preds = %7, %4, %3
  %11 = tail call i64 @_osqp_error(i32 noundef 6, ptr noundef nonnull @__func__.adjoint_derivative_get_mat) #6
  br label %114

12:                                               ; preds = %7
  %13 = load ptr, ptr %6, align 8
  %14 = load i64, ptr %13, align 8
  %15 = getelementptr inbounds i8, ptr %0, i64 8
  %16 = load ptr, ptr %15, align 8
  %17 = load ptr, ptr %16, align 8
  %18 = tail call ptr @OSQPVectorf_new(ptr noundef %17, i64 noundef %14) #6
  %19 = tail call ptr @OSQPVectorf_data(ptr noundef %18) #6
  %20 = getelementptr inbounds i8, ptr %9, i64 32
  %21 = load ptr, ptr %20, align 8
  %22 = tail call ptr @OSQPVectorf_data(ptr noundef %21) #6
  %23 = getelementptr inbounds i8, ptr %9, i64 24
  %24 = load ptr, ptr %23, align 8
  %25 = tail call ptr @OSQPVectorf_data(ptr noundef %24) #6
  %26 = getelementptr inbounds i8, ptr %9, i64 48
  %27 = load ptr, ptr %26, align 8
  %28 = tail call ptr @OSQPVectorf_data(ptr noundef %27) #6
  %29 = getelementptr inbounds i8, ptr %9, i64 40
  %30 = load ptr, ptr %29, align 8
  %31 = tail call ptr @OSQPVectorf_data(ptr noundef %30) #6
  %32 = load i64, ptr %9, align 8
  %33 = add nsw i64 %32, %14
  %34 = getelementptr inbounds i8, ptr %9, i64 8
  %35 = load i64, ptr %34, align 8
  %36 = add nsw i64 %33, %35
  %37 = getelementptr inbounds i8, ptr %9, i64 16
  %38 = load i64, ptr %37, align 8
  %39 = add nsw i64 %36, %38
  %40 = getelementptr inbounds i8, ptr %9, i64 56
  %41 = load ptr, ptr %40, align 8
  %42 = tail call ptr @OSQPVectorf_view(ptr noundef %41, i64 noundef %39, i64 noundef %14) #6
  %43 = tail call ptr @OSQPVectorf_data(ptr noundef %42) #6
  %44 = icmp sgt i64 %14, 0
  br i1 %44, label %.lr.ph78, label %._crit_edge79

.lr.ph78:                                         ; preds = %12
  %45 = getelementptr inbounds i8, ptr %1, i64 16
  %46 = getelementptr inbounds i8, ptr %1, i64 24
  %47 = getelementptr inbounds i8, ptr %1, i64 32
  %48 = getelementptr inbounds i8, ptr %2, i64 16
  %49 = getelementptr inbounds i8, ptr %2, i64 24
  %50 = getelementptr inbounds i8, ptr %2, i64 32
  br label %51

.loopexit:                                        ; preds = %89, %._crit_edge
  %exitcond.not = icmp eq i64 %55, %14
  br i1 %exitcond.not, label %._crit_edge79, label %51, !llvm.loop !4

51:                                               ; preds = %.lr.ph78, %.loopexit
  %.06576 = phi i64 [ 0, %.lr.ph78 ], [ %55, %.loopexit ]
  %52 = load ptr, ptr %45, align 8
  %53 = getelementptr inbounds i64, ptr %52, i64 %.06576
  %54 = load i64, ptr %53, align 8
  %55 = add nuw nsw i64 %.06576, 1
  %56 = getelementptr inbounds i64, ptr %52, i64 %55
  %57 = load i64, ptr %56, align 8
  %58 = icmp slt i64 %54, %57
  br i1 %58, label %.lr.ph, label %._crit_edge

.lr.ph:                                           ; preds = %51
  %59 = getelementptr inbounds double, ptr %19, i64 %.06576
  %60 = getelementptr inbounds double, ptr %43, i64 %.06576
  br label %61

61:                                               ; preds = %.lr.ph, %61
  %.072 = phi i64 [ %54, %.lr.ph ], [ %76, %61 ]
  %62 = load ptr, ptr %46, align 8
  %63 = getelementptr inbounds i64, ptr %62, i64 %.072
  %64 = load i64, ptr %63, align 8
  %65 = getelementptr inbounds double, ptr %43, i64 %64
  %66 = load double, ptr %65, align 8
  %67 = load double, ptr %59, align 8
  %68 = load double, ptr %60, align 8
  %69 = getelementptr inbounds double, ptr %19, i64 %64
  %70 = load double, ptr %69, align 8
  %71 = fmul double %68, %70
  %72 = tail call double @llvm.fmuladd.f64(double %66, double %67, double %71)
  %73 = fmul double %72, 5.000000e-01
  %74 = load ptr, ptr %47, align 8
  %75 = getelementptr inbounds double, ptr %74, i64 %.072
  store double %73, ptr %75, align 8
  %76 = add nsw i64 %.072, 1
  %77 = load ptr, ptr %45, align 8
  %78 = getelementptr inbounds i64, ptr %77, i64 %55
  %79 = load i64, ptr %78, align 8
  %80 = icmp slt i64 %76, %79
  br i1 %80, label %61, label %._crit_edge, !llvm.loop !6

._crit_edge:                                      ; preds = %61, %51
  %81 = load ptr, ptr %48, align 8
  %82 = getelementptr inbounds i64, ptr %81, i64 %.06576
  %83 = load i64, ptr %82, align 8
  %84 = getelementptr inbounds i64, ptr %81, i64 %55
  %85 = load i64, ptr %84, align 8
  %86 = icmp slt i64 %83, %85
  br i1 %86, label %.lr.ph75, label %.loopexit

.lr.ph75:                                         ; preds = %._crit_edge
  %87 = getelementptr inbounds double, ptr %43, i64 %.06576
  %88 = getelementptr inbounds double, ptr %19, i64 %.06576
  br label %89

89:                                               ; preds = %.lr.ph75, %89
  %.173 = phi i64 [ %83, %.lr.ph75 ], [ %109, %89 ]
  %90 = load ptr, ptr %49, align 8
  %91 = getelementptr inbounds i64, ptr %90, i64 %.173
  %92 = load i64, ptr %91, align 8
  %93 = getelementptr inbounds double, ptr %22, i64 %92
  %94 = load double, ptr %93, align 8
  %95 = getelementptr inbounds double, ptr %25, i64 %92
  %96 = load double, ptr %95, align 8
  %97 = fsub double %94, %96
  %98 = load double, ptr %87, align 8
  %99 = getelementptr inbounds double, ptr %28, i64 %92
  %100 = load double, ptr %99, align 8
  %101 = getelementptr inbounds double, ptr %31, i64 %92
  %102 = load double, ptr %101, align 8
  %103 = fsub double %100, %102
  %104 = load double, ptr %88, align 8
  %105 = fmul double %103, %104
  %106 = tail call double @llvm.fmuladd.f64(double %97, double %98, double %105)
  %107 = load ptr, ptr %50, align 8
  %108 = getelementptr inbounds double, ptr %107, i64 %.173
  store double %106, ptr %108, align 8
  %109 = add nsw i64 %.173, 1
  %110 = load ptr, ptr %48, align 8
  %111 = getelementptr inbounds i64, ptr %110, i64 %55
  %112 = load i64, ptr %111, align 8
  %113 = icmp slt i64 %109, %112
  br i1 %113, label %89, label %.loopexit, !llvm.loop !7

._crit_edge79:                                    ; preds = %.loopexit, %12
  tail call void @OSQPVectorf_view_free(ptr noundef %42) #6
  tail call void @OSQPVectorf_free(ptr noundef %18) #6
  br label %114

114:                                              ; preds = %._crit_edge79, %10
  %.066 = phi i64 [ 0, %._crit_edge79 ], [ %11, %10 ]
  ret i64 %.066
}